(ikeras_frcnn.config
Config
p0
(dp1
S'use_vertical_flips'
p2
I00
sS'verbose'
p3
I01
sS'classifier_regr_std'
p4
(lp5
F8.0
aF8.0
aF4.0
aF4.0
asS'classifier_min_overlap'
p6
F0.1
sS'rot_90'
p7
I00
sS'class_mapping'
p8
(dp9
S'twin_sink'
p10
I10
sS'small_sink'
p11
I3
sS'large_sofa'
p12
I5
sS'armchair'
p13
I11
sS'dining_table'
p14
I7
sS'bed'
p15
I6
sS'small_sofa'
p16
I8
sS'bg'
p17
I12
sS'sink'
p18
I0
sS'tub'
p19
I4
sS'large_sink'
p20
I2
sS'coffee_table'
p21
I1
sS'round_table'
p22
I9
ssS'use_horizontal_flips'
p23
I00
sS'rpn_max_overlap'
p24
F0.7
sS'network'
p25
S'resnet50'
p26
sS'img_channel_mean'
p27
(lp28
F103.939
aF116.779
aF123.68
asS'balanced_classes'
p29
I00
sS'anchor_box_ratios'
p30
(lp31
(lp32
I1
aI1
aa(lp33
F0.7071067811865475
aF1.414213562373095
aa(lp34
F1.414213562373095
aF0.7071067811865475
aasS'img_scaling_factor'
p35
F1.0
sS'rpn_stride'
p36
I16
sS'num_rois'
p37
I32
sS'base_net_weights'
p38
S'resnet50_weights_tf_dim_ordering_tf_kernels.h5'
p39
sS'anchor_box_scales'
p40
(lp41
I128
aI256
aI512
asS'rpn_min_overlap'
p42
F0.3
sS'model_path'
p43
S'./model_frcnn.hdf5'
p44
sS'classifier_max_overlap'
p45
F0.5
sS'std_scaling'
p46
F4.0
sS'im_size'
p47
I600
sb.